target datalayout = "e-m:e-p270:32:32-p271:32:32-p272:64:64-i64:64-i128:128-f80:128-n8:16:32:64-S128"
target triple = "x86_64-pc-linux-gnu"

%"class.llvm::pdb::WithColor" = type <{ ptr, i8, [7 x i8] }>

; Function Attrs: mustprogress nounwind uwtable
define dso_local void @_ZN4llvm3pdb9WithColor10applyColorENS0_13PDB_ColorItemE(ptr noundef nonnull align 8 dereferenceable(9) %0, i32 noundef %1) #0 align 2 {
  %3 = alloca ptr, align 8
  %4 = alloca i32, align 4
  store ptr %0, ptr %3, align 8
  store i32 %1, ptr %4, align 4
  %5 = load ptr, ptr %3, align 8
  %6 = load i32, ptr %4, align 4
  switch i32 %6, label %77 [
    i32 0, label %7
    i32 3, label %14
    i32 1, label %21
    i32 5, label %28
    i32 11, label %35
    i32 6, label %35
    i32 2, label %42
    i32 7, label %49
    i32 8, label %56
    i32 4, label %63
    i32 9, label %63
    i32 10, label %70
  ]

7:                                                ; preds = %2
  %8 = getelementptr inbounds nuw %"class.llvm::pdb::WithColor", ptr %5, i32 0, i32 0
  %9 = load ptr, ptr %8, align 8
  %10 = load ptr, ptr %9, align 8
  %11 = getelementptr inbounds ptr, ptr %10, i64 4
  %12 = load ptr, ptr %11, align 8
  %13 = call noundef nonnull align 8 dereferenceable(48) ptr %12(ptr noundef nonnull align 8 dereferenceable(48) %9)
  br label %77

14:                                               ; preds = %2
  %15 = getelementptr inbounds nuw %"class.llvm::pdb::WithColor", ptr %5, i32 0, i32 0
  %16 = load ptr, ptr %15, align 8
  %17 = load ptr, ptr %16, align 8
  %18 = getelementptr inbounds ptr, ptr %17, i64 3
  %19 = load ptr, ptr %18, align 8
  %20 = call noundef nonnull align 8 dereferenceable(48) ptr %19(ptr noundef nonnull align 8 dereferenceable(48) %16, i32 noundef 2, i1 noundef zeroext false, i1 noundef zeroext false)
  br label %77

21:                                               ; preds = %2
  %22 = getelementptr inbounds nuw %"class.llvm::pdb::WithColor", ptr %5, i32 0, i32 0
  %23 = load ptr, ptr %22, align 8
  %24 = load ptr, ptr %23, align 8
  %25 = getelementptr inbounds ptr, ptr %24, i64 3
  %26 = load ptr, ptr %25, align 8
  %27 = call noundef nonnull align 8 dereferenceable(48) ptr %26(ptr noundef nonnull align 8 dereferenceable(48) %23, i32 noundef 3, i1 noundef zeroext true, i1 noundef zeroext false)
  br label %77

28:                                               ; preds = %2
  %29 = getelementptr inbounds nuw %"class.llvm::pdb::WithColor", ptr %5, i32 0, i32 0
  %30 = load ptr, ptr %29, align 8
  %31 = load ptr, ptr %30, align 8
  %32 = getelementptr inbounds ptr, ptr %31, i64 3
  %33 = load ptr, ptr %32, align 8
  %34 = call noundef nonnull align 8 dereferenceable(48) ptr %33(ptr noundef nonnull align 8 dereferenceable(48) %30, i32 noundef 5, i1 noundef zeroext true, i1 noundef zeroext false)
  br label %77

35:                                               ; preds = %2, %2
  %36 = getelementptr inbounds nuw %"class.llvm::pdb::WithColor", ptr %5, i32 0, i32 0
  %37 = load ptr, ptr %36, align 8
  %38 = load ptr, ptr %37, align 8
  %39 = getelementptr inbounds ptr, ptr %38, i64 3
  %40 = load ptr, ptr %39, align 8
  %41 = call noundef nonnull align 8 dereferenceable(48) ptr %40(ptr noundef nonnull align 8 dereferenceable(48) %37, i32 noundef 3, i1 noundef zeroext false, i1 noundef zeroext false)
  br label %77

42:                                               ; preds = %2
  %43 = getelementptr inbounds nuw %"class.llvm::pdb::WithColor", ptr %5, i32 0, i32 0
  %44 = load ptr, ptr %43, align 8
  %45 = load ptr, ptr %44, align 8
  %46 = getelementptr inbounds ptr, ptr %45, i64 3
  %47 = load ptr, ptr %46, align 8
  %48 = call noundef nonnull align 8 dereferenceable(48) ptr %47(ptr noundef nonnull align 8 dereferenceable(48) %44, i32 noundef 6, i1 noundef zeroext true, i1 noundef zeroext false)
  br label %77

49:                                               ; preds = %2
  %50 = getelementptr inbounds nuw %"class.llvm::pdb::WithColor", ptr %5, i32 0, i32 0
  %51 = load ptr, ptr %50, align 8
  %52 = load ptr, ptr %51, align 8
  %53 = getelementptr inbounds ptr, ptr %52, i64 3
  %54 = load ptr, ptr %53, align 8
  %55 = call noundef nonnull align 8 dereferenceable(48) ptr %54(ptr noundef nonnull align 8 dereferenceable(48) %51, i32 noundef 6, i1 noundef zeroext false, i1 noundef zeroext false)
  br label %77

56:                                               ; preds = %2
  %57 = getelementptr inbounds nuw %"class.llvm::pdb::WithColor", ptr %5, i32 0, i32 0
  %58 = load ptr, ptr %57, align 8
  %59 = load ptr, ptr %58, align 8
  %60 = getelementptr inbounds ptr, ptr %59, i64 3
  %61 = load ptr, ptr %60, align 8
  %62 = call noundef nonnull align 8 dereferenceable(48) ptr %61(ptr noundef nonnull align 8 dereferenceable(48) %58, i32 noundef 6, i1 noundef zeroext false, i1 noundef zeroext false)
  br label %77

63:                                               ; preds = %2, %2
  %64 = getelementptr inbounds nuw %"class.llvm::pdb::WithColor", ptr %5, i32 0, i32 0
  %65 = load ptr, ptr %64, align 8
  %66 = load ptr, ptr %65, align 8
  %67 = getelementptr inbounds ptr, ptr %66, i64 3
  %68 = load ptr, ptr %67, align 8
  %69 = call noundef nonnull align 8 dereferenceable(48) ptr %68(ptr noundef nonnull align 8 dereferenceable(48) %65, i32 noundef 1, i1 noundef zeroext true, i1 noundef zeroext false)
  br label %77

70:                                               ; preds = %2
  %71 = getelementptr inbounds nuw %"class.llvm::pdb::WithColor", ptr %5, i32 0, i32 0
  %72 = load ptr, ptr %71, align 8
  %73 = load ptr, ptr %72, align 8
  %74 = getelementptr inbounds ptr, ptr %73, i64 3
  %75 = load ptr, ptr %74, align 8
  %76 = call noundef nonnull align 8 dereferenceable(48) ptr %75(ptr noundef nonnull align 8 dereferenceable(48) %72, i32 noundef 2, i1 noundef zeroext true, i1 noundef zeroext false)
  br label %77

77:                                               ; preds = %70, %63, %56, %49, %42, %35, %28, %21, %14, %7, %2
  ret void
}