; Function Attrs: mustprogress nounwind uwtable
define dso_local void @_ZN4llvm3pdb9WithColor10applyColorENS0_13PDB_ColorItemE(ptr noundef nonnull readonly align 8 captures(none) dereferenceable(9) %0, i32 noundef %1) local_unnamed_addr #0 align 2 {
  switch i32 %1, label %63 [
    i32 0, label %3
    i32 3, label %9
    i32 1, label %15
    i32 5, label %21
    i32 11, label %27
    i32 6, label %27
    i32 2, label %33
    i32 7, label %39
    i32 8, label %45
    i32 4, label %51
    i32 9, label %51
    i32 10, label %57
  ]

3:                                                ; preds = %2
  %4 = load ptr, ptr %0, align 8
  %5 = load ptr, ptr %4, align 8
  %6 = getelementptr inbounds nuw i8, ptr %5, i64 32
  %7 = load ptr, ptr %6, align 8
  %8 = tail call noundef nonnull align 8 dereferenceable(48) ptr %7(ptr noundef nonnull align 8 dereferenceable(48) %4) #16
  br label %63

9:                                                ; preds = %2
  %10 = load ptr, ptr %0, align 8
  %11 = load ptr, ptr %10, align 8
  %12 = getelementptr inbounds nuw i8, ptr %11, i64 24
  %13 = load ptr, ptr %12, align 8
  %14 = tail call noundef nonnull align 8 dereferenceable(48) ptr %13(ptr noundef nonnull align 8 dereferenceable(48) %10, i32 noundef 2, i1 noundef zeroext false, i1 noundef zeroext false) #16
  br label %63

15:                                               ; preds = %2
  %16 = load ptr, ptr %0, align 8
  %17 = load ptr, ptr %16, align 8
  %18 = getelementptr inbounds nuw i8, ptr %17, i64 24
  %19 = load ptr, ptr %18, align 8
  %20 = tail call noundef nonnull align 8 dereferenceable(48) ptr %19(ptr noundef nonnull align 8 dereferenceable(48) %16, i32 noundef 3, i1 noundef zeroext true, i1 noundef zeroext false) #16
  br label %63

21:                                               ; preds = %2
  %22 = load ptr, ptr %0, align 8
  %23 = load ptr, ptr %22, align 8
  %24 = getelementptr inbounds nuw i8, ptr %23, i64 24
  %25 = load ptr, ptr %24, align 8
  %26 = tail call noundef nonnull align 8 dereferenceable(48) ptr %25(ptr noundef nonnull align 8 dereferenceable(48) %22, i32 noundef 5, i1 noundef zeroext true, i1 noundef zeroext false) #16
  br label %63

27:                                               ; preds = %2, %2
  %28 = load ptr, ptr %0, align 8
  %29 = load ptr, ptr %28, align 8
  %30 = getelementptr inbounds nuw i8, ptr %29, i64 24
  %31 = load ptr, ptr %30, align 8
  %32 = tail call noundef nonnull align 8 dereferenceable(48) ptr %31(ptr noundef nonnull align 8 dereferenceable(48) %28, i32 noundef 3, i1 noundef zeroext false, i1 noundef zeroext false) #16
  br label %63

33:                                               ; preds = %2
  %34 = load ptr, ptr %0, align 8
  %35 = load ptr, ptr %34, align 8
  %36 = getelementptr inbounds nuw i8, ptr %35, i64 24
  %37 = load ptr, ptr %36, align 8
  %38 = tail call noundef nonnull align 8 dereferenceable(48) ptr %37(ptr noundef nonnull align 8 dereferenceable(48) %34, i32 noundef 6, i1 noundef zeroext true, i1 noundef zeroext false) #16
  br label %63

39:                                               ; preds = %2
  %40 = load ptr, ptr %0, align 8
  %41 = load ptr, ptr %40, align 8
  %42 = getelementptr inbounds nuw i8, ptr %41, i64 24
  %43 = load ptr, ptr %42, align 8
  %44 = tail call noundef nonnull align 8 dereferenceable(48) ptr %43(ptr noundef nonnull align 8 dereferenceable(48) %40, i32 noundef 6, i1 noundef zeroext false, i1 noundef zeroext false) #16
  br label %63

45:                                               ; preds = %2
  %46 = load ptr, ptr %0, align 8
  %47 = load ptr, ptr %46, align 8
  %48 = getelementptr inbounds nuw i8, ptr %47, i64 24
  %49 = load ptr, ptr %48, align 8
  %50 = tail call noundef nonnull align 8 dereferenceable(48) ptr %49(ptr noundef nonnull align 8 dereferenceable(48) %46, i32 noundef 6, i1 noundef zeroext false, i1 noundef zeroext false) #16
  br label %63

51:                                               ; preds = %2, %2
  %52 = load ptr, ptr %0, align 8
  %53 = load ptr, ptr %52, align 8
  %54 = getelementptr inbounds nuw i8, ptr %53, i64 24
  %55 = load ptr, ptr %54, align 8
  %56 = tail call noundef nonnull align 8 dereferenceable(48) ptr %55(ptr noundef nonnull align 8 dereferenceable(48) %52, i32 noundef 1, i1 noundef zeroext true, i1 noundef zeroext false) #16
  br label %63

57:                                               ; preds = %2
  %58 = load ptr, ptr %0, align 8
  %59 = load ptr, ptr %58, align 8
  %60 = getelementptr inbounds nuw i8, ptr %59, i64 24
  %61 = load ptr, ptr %60, align 8
  %62 = tail call noundef nonnull align 8 dereferenceable(48) ptr %61(ptr noundef nonnull align 8 dereferenceable(48) %58, i32 noundef 2, i1 noundef zeroext true, i1 noundef zeroext false) #16
  br label %63

63:                                               ; preds = %57, %51, %45, %39, %33, %27, %21, %15, %9, %3, %2
  ret void
}